; Function Attrs: mustprogress uwtable
define void @_ZN7rocksdb16MetaIndexBuilderC2Ev(ptr noundef nonnull align 8 dereferenceable(56) %this) unnamed_addr #3 align 2 personality ptr @__gxx_personality_v0 {
entry:
  %call.i1.i.i.i = tail call noundef ptr @_ZN7rocksdb18BytewiseComparatorEv()
  store ptr %call.i1.i.i.i, ptr %this, align 8
  %0 = getelementptr inbounds i8, ptr %this, i64 8
  store i32 0, ptr %0, align 8
  %_M_parent.i.i.i.i.i = getelementptr inbounds i8, ptr %this, i64 16
  store ptr null, ptr %_M_parent.i.i.i.i.i, align 8
  %_M_left.i.i.i.i.i = getelementptr inbounds i8, ptr %this, i64 24
  store ptr %0, ptr %_M_left.i.i.i.i.i, align 8
  %_M_right.i.i.i.i.i = getelementptr inbounds i8, ptr %this, i64 32
  store ptr %0, ptr %_M_right.i.i.i.i.i, align 8
  %_M_node_count.i.i.i.i.i = getelementptr inbounds i8, ptr %this, i64 40
  store i64 0, ptr %_M_node_count.i.i.i.i.i, align 8
  %call = invoke noalias noundef nonnull dereferenceable(176) ptr @_Znwm(i64 noundef 176) #19
          to label %invoke.cont unwind label %lpad

invoke.cont:                                      ; preds = %entry
  invoke void @_ZN7rocksdb12BlockBuilderC1EibbNS_22BlockBasedTableOptions18DataBlockIndexTypeEdmbb(ptr noundef nonnull align 8 dereferenceable(176) %call, i32 noundef 1, i1 noundef zeroext true, i1 noundef zeroext false, i8 noundef signext 0, double noundef 7.500000e-01, i64 noundef 0, i1 noundef zeroext true, i1 noundef zeroext false)
          to label %invoke.cont3 unwind label %lpad2

invoke.cont3:                                     ; preds = %invoke.cont
  %meta_index_block_ = getelementptr inbounds i8, ptr %this, i64 48
  store ptr %call, ptr %meta_index_block_, align 8
  ret void

lpad:                                             ; preds = %entry
  %1 = landingpad { ptr, i32 }
          cleanup
  br label %ehcleanup

lpad2:                                            ; preds = %invoke.cont
  %2 = landingpad { ptr, i32 }
          cleanup
  tail call void @_ZdlPv(ptr noundef nonnull %call) #18
  br label %ehcleanup

ehcleanup:                                        ; preds = %lpad2, %lpad
  %.pn = phi { ptr, i32 } [ %2, %lpad2 ], [ %1, %lpad ]
  tail call void @_ZNSt3mapINSt7__cxx1112basic_stringIcSt11char_traitsIcESaIcEEES5_N7rocksdb12stl_wrappers16LessOfComparatorESaISt4pairIKS5_S5_EEED2Ev(ptr noundef nonnull align 8 dereferenceable(48) %this) #20
  resume { ptr, i32 } %.pn
}